target datalayout = "e-m:e-p270:32:32-p271:32:32-p272:64:64-i64:64-i128:128-f80:128-n8:16:32:64-S128"
target triple = "x86_64-pc-linux-gnu"

; Function Attrs: nounwind sspstrong uwtable
define dso_local i64 @rb_str_strlen(i64 noundef %0) #0 {
  %2 = alloca i64, align 8
  store i64 %0, ptr %2, align 8, !tbaa !7
  %3 = load i64, ptr %2, align 8, !tbaa !7
  %4 = call i64 @str_strlen(i64 noundef %3, ptr noundef null)
  ret i64 %4
}

; Function Attrs: nounwind sspstrong uwtable
define internal i64 @rb_str_grapheme_clusters(i64 noundef %0) #0 {
  %2 = alloca i64, align 8
  %3 = alloca i64, align 8
  store i64 %0, ptr %2, align 8, !tbaa !7
  call void @llvm.lifetime.start.p0(i64 8, ptr %3) #29
  %4 = call i32 @rb_block_given_p()
  %5 = icmp ne i32 %4, 0
  br i1 %5, label %10, label %6

6:                                                ; preds = %1
  %7 = load i64, ptr %2, align 8, !tbaa !7
  %8 = call i64 @rb_str_strlen(i64 noundef %7)
  %9 = call i64 @rb_ary_new_capa(i64 noundef %8)
  br label %11

10:                                               ; preds = %1
  br label %11

11:                                               ; preds = %10, %6
  %12 = phi i64 [ %9, %6 ], [ 0, %10 ]
  store i64 %12, ptr %3, align 8, !tbaa !7
  %13 = load i64, ptr %2, align 8, !tbaa !7
  %14 = load i64, ptr %3, align 8, !tbaa !7
  %15 = call i64 @rb_str_enumerate_grapheme_clusters(i64 noundef %13, i64 noundef %14)
  call void @llvm.lifetime.end.p0(i64 8, ptr %3) #29
  ret i64 %15
}