; Function Attrs: nounwind sspstrong uwtable
define internal noundef i64 @rb_str_grapheme_clusters(i64 noundef %0) #1 {
  %2 = tail call i32 @rb_block_given_p() #29
  %.not = icmp eq i32 %2, 0
  br i1 %.not, label %3, label %6

3:                                                ; preds = %1
  %4 = tail call fastcc i64 @str_strlen(i64 noundef %0, ptr noundef null)
  %5 = tail call i64 @rb_ary_new_capa(i64 noundef %4) #29
  br label %6

6:                                                ; preds = %1, %3
  %7 = phi i64 [ %5, %3 ], [ 0, %1 ]
  %8 = tail call fastcc i64 @rb_str_enumerate_grapheme_clusters(i64 noundef %0, i64 noundef %7)
  ret i64 %8
}